target datalayout = "e-m:e-p270:32:32-p271:32:32-p272:64:64-i64:64-i128:128-f80:128-n8:16:32:64-S128"
target triple = "x86_64-pc-linux-gnu"

%struct.AppendState = type { %struct.PlanState, ptr, i32, i32, i8, ptr, i32, ptr, ptr, i32, i8, i32, ptr, ptr, i32, ptr, i64, ptr, i8, ptr, ptr, ptr }
%struct.PlanState = type { i32, ptr, ptr, ptr, ptr, ptr, ptr, ptr, ptr, ptr, ptr, ptr, ptr, ptr, ptr, ptr, ptr, ptr, i8, ptr, ptr, ptr, ptr, ptr, i8, i8, i8, i8, i8, i8, i8, i8 }

; Function Attrs: nounwind uwtable
define dso_local void @ExecEndAppend(ptr noundef %0) #0 {
  %2 = alloca ptr, align 8
  %3 = alloca ptr, align 8
  %4 = alloca i32, align 4
  %5 = alloca i32, align 4
  store ptr %0, ptr %2, align 8
  call void @llvm.lifetime.start.p0(i64 8, ptr %3) #6
  call void @llvm.lifetime.start.p0(i64 4, ptr %4) #6
  call void @llvm.lifetime.start.p0(i64 4, ptr %5) #6
  %6 = load ptr, ptr %2, align 8
  %7 = getelementptr inbounds nuw %struct.AppendState, ptr %6, i32 0, i32 1
  %8 = load ptr, ptr %7, align 8
  store ptr %8, ptr %3, align 8
  %9 = load ptr, ptr %2, align 8
  %10 = getelementptr inbounds nuw %struct.AppendState, ptr %9, i32 0, i32 2
  %11 = load i32, ptr %10, align 8
  store i32 %11, ptr %4, align 4
  store i32 0, ptr %5, align 4
  br label %12

12:                                               ; preds = %22, %1
  %13 = load i32, ptr %5, align 4
  %14 = load i32, ptr %4, align 4
  %15 = icmp slt i32 %13, %14
  br i1 %15, label %16, label %25

16:                                               ; preds = %12
  %17 = load ptr, ptr %3, align 8
  %18 = load i32, ptr %5, align 4
  %19 = sext i32 %18 to i64
  %20 = getelementptr inbounds ptr, ptr %17, i64 %19
  %21 = load ptr, ptr %20, align 8
  call void @ExecEndNode(ptr noundef %21)
  br label %22

22:                                               ; preds = %16
  %23 = load i32, ptr %5, align 4
  %24 = add i32 %23, 1
  store i32 %24, ptr %5, align 4
  br label %12, !llvm.loop !9

25:                                               ; preds = %12
  call void @llvm.lifetime.end.p0(i64 4, ptr %5) #6
  call void @llvm.lifetime.end.p0(i64 4, ptr %4) #6
  call void @llvm.lifetime.end.p0(i64 8, ptr %3) #6
  ret void
}